target datalayout = "e-m:e-p270:32:32-p271:32:32-p272:64:64-i64:64-i128:128-f80:128-n8:16:32:64-S128"
target triple = "x86_64-pc-linux-gnu"

%struct._value_string_ext = type { ptr, i32, i32, ptr, ptr }

@.str.760 = private unnamed_addr constant [6 x i8] c" (%s)\00", align 1
@uds_ht_data_ids = internal global ptr null, align 8
@uds_standard_did_types_ext = internal global %struct._value_string_ext { ptr @_try_val_to_str_ext_init, i32 0, i32 53, ptr @_uds_standard_did_types, ptr @.str.794 }, align 8

; Function Attrs: nounwind null_pointer_is_valid sspstrong uwtable
define internal i64 @calc_key(i32 noundef %0, i32 noundef %1) #3 {
  %3 = alloca i32, align 4
  %4 = alloca i32, align 4
  store i32 %0, ptr %3, align 4
  store i32 %1, ptr %4, align 4
  %5 = load i32, ptr %4, align 4
  %6 = zext i32 %5 to i64
  %7 = shl i64 %6, 32
  %8 = load i32, ptr %3, align 4
  %9 = zext i32 %8 to i64
  %10 = or i64 %7, %9
  ret i64 %10
}

; Function Attrs: null_pointer_is_valid sspstrong uwtable
define internal ptr @generic_lookup_addr_id(i32 noundef %0, i32 noundef %1, ptr noundef %2) #0 {
  %4 = alloca ptr, align 8
  %5 = alloca i32, align 4
  %6 = alloca i32, align 4
  %7 = alloca ptr, align 8
  %8 = alloca i64, align 8
  %9 = alloca ptr, align 8
  store i32 %0, ptr %5, align 4
  store i32 %1, ptr %6, align 4
  store ptr %2, ptr %7, align 8
  %10 = load ptr, ptr %7, align 8
  %11 = icmp eq ptr %10, null
  br i1 %11, label %12, label %13

12:                                               ; preds = %3
  store ptr null, ptr %4, align 8
  br label %28

13:                                               ; preds = %3
  call void @llvm.lifetime.start.p0(i64 8, ptr %8) #12
  %14 = load i32, ptr %5, align 4
  %15 = load i32, ptr %6, align 4
  %16 = call i64 @calc_key(i32 noundef %14, i32 noundef %15)
  store i64 %16, ptr %8, align 8
  call void @llvm.lifetime.start.p0(i64 8, ptr %9) #12
  %17 = load ptr, ptr %7, align 8
  %18 = call ptr @g_hash_table_lookup(ptr noundef %17, ptr noundef %8)
  store ptr %18, ptr %9, align 8
  %19 = load ptr, ptr %9, align 8
  %20 = icmp eq ptr %19, null
  br i1 %20, label %21, label %26

21:                                               ; preds = %13
  %22 = load i32, ptr %6, align 4
  %23 = call i64 @calc_key(i32 noundef -1, i32 noundef %22)
  store i64 %23, ptr %8, align 8
  %24 = load ptr, ptr %7, align 8
  %25 = call ptr @g_hash_table_lookup(ptr noundef %24, ptr noundef %8)
  store ptr %25, ptr %9, align 8
  br label %26

26:                                               ; preds = %21, %13
  %27 = load ptr, ptr %9, align 8
  store ptr %27, ptr %4, align 8
  call void @llvm.lifetime.end.p0(i64 8, ptr %9) #12
  call void @llvm.lifetime.end.p0(i64 8, ptr %8) #12
  br label %28

28:                                               ; preds = %26, %12
  %29 = load ptr, ptr %4, align 8
  ret ptr %29
}

; Function Attrs: null_pointer_is_valid sspstrong uwtable
define internal ptr @uds_lookup_data_name(i32 noundef %0, i16 noundef zeroext %1) #0 {
  %3 = alloca i32, align 4
  %4 = alloca i16, align 2
  %5 = alloca ptr, align 8
  store i32 %0, ptr %3, align 4
  store i16 %1, ptr %4, align 2
  call void @llvm.lifetime.start.p0(i64 8, ptr %5) #12
  %6 = load i32, ptr %3, align 4
  %7 = load i16, ptr %4, align 2
  %8 = zext i16 %7 to i32
  %9 = load ptr, ptr @uds_ht_data_ids, align 8
  %10 = call ptr @generic_lookup_addr_id(i32 noundef %6, i32 noundef %8, ptr noundef %9)
  store ptr %10, ptr %5, align 8
  %11 = load ptr, ptr %5, align 8
  %12 = icmp eq ptr %11, null
  br i1 %12, label %13, label %17

13:                                               ; preds = %2
  %14 = load i16, ptr %4, align 2
  %15 = zext i16 %14 to i32
  %16 = call ptr @try_val_to_str_ext(i32 noundef %15, ptr noundef @uds_standard_did_types_ext)
  store ptr %16, ptr %5, align 8
  br label %17

17:                                               ; preds = %13, %2
  %18 = load ptr, ptr %5, align 8
  call void @llvm.lifetime.end.p0(i64 8, ptr %5) #12
  ret ptr %18
}

; Function Attrs: null_pointer_is_valid sspstrong uwtable
define internal void @protoitem_append_data_name(ptr noundef %0, i32 noundef %1, i16 noundef zeroext %2) #0 {
  %4 = alloca ptr, align 8
  %5 = alloca i32, align 4
  %6 = alloca i16, align 2
  %7 = alloca ptr, align 8
  store ptr %0, ptr %4, align 8
  store i32 %1, ptr %5, align 4
  store i16 %2, ptr %6, align 2
  call void @llvm.lifetime.start.p0(i64 8, ptr %7) #12
  %8 = load i32, ptr %5, align 4
  %9 = load i16, ptr %6, align 2
  %10 = call ptr @uds_lookup_data_name(i32 noundef %8, i16 noundef zeroext %9)
  store ptr %10, ptr %7, align 8
  %11 = load ptr, ptr %7, align 8
  %12 = icmp ne ptr %11, null
  br i1 %12, label %13, label %16

13:                                               ; preds = %3
  %14 = load ptr, ptr %4, align 8
  %15 = load ptr, ptr %7, align 8
  call void (ptr, ptr, ...) @proto_item_append_text(ptr noundef %14, ptr noundef @.str.760, ptr noundef %15)
  br label %16

16:                                               ; preds = %13, %3
  call void @llvm.lifetime.end.p0(i64 8, ptr %7) #12
  ret void
}