; Function Attrs: null_pointer_is_valid sspstrong uwtable
define internal fastcc void @protoitem_append_data_name(ptr noundef %0, i32 noundef range(i32 -1, 65536) %1, i16 noundef zeroext %2) unnamed_addr #0 {
  %4 = alloca i64, align 8
  %5 = zext i16 %2 to i32
  %6 = load ptr, ptr @uds_ht_data_ids, align 8
  %7 = icmp eq ptr %6, null
  br i1 %7, label %uds_lookup_data_name.exit, label %8

8:                                                ; preds = %3
  call void @llvm.lifetime.start.p0(i64 8, ptr nonnull %4) #14
  %9 = zext i16 %2 to i64
  %10 = shl nuw nsw i64 %9, 32
  %11 = zext i32 %1 to i64
  %12 = or disjoint i64 %10, %11
  store i64 %12, ptr %4, align 8
  %13 = call ptr @g_hash_table_lookup(ptr noundef nonnull %6, ptr noundef nonnull %4)
  %14 = icmp eq ptr %13, null
  br i1 %14, label %generic_lookup_addr_id.exit.i, label %generic_lookup_addr_id.exit.thread6.i

generic_lookup_addr_id.exit.thread6.i:            ; preds = %8
  call void @llvm.lifetime.end.p0(i64 8, ptr nonnull %4) #14
  br label %uds_lookup_data_name.exit.thread

generic_lookup_addr_id.exit.i:                    ; preds = %8
  %15 = or disjoint i64 %10, 4294967295
  store i64 %15, ptr %4, align 8
  %16 = call ptr @g_hash_table_lookup(ptr noundef nonnull %6, ptr noundef nonnull %4)
  call void @llvm.lifetime.end.p0(i64 8, ptr nonnull %4) #14
  %17 = icmp eq ptr %16, null
  br i1 %17, label %uds_lookup_data_name.exit, label %uds_lookup_data_name.exit.thread

uds_lookup_data_name.exit:                        ; preds = %3, %generic_lookup_addr_id.exit.i
  %18 = call ptr @try_val_to_str_ext(i32 noundef %5, ptr noundef nonnull @uds_standard_did_types_ext)
  %.not = icmp eq ptr %18, null
  br i1 %.not, label %19, label %uds_lookup_data_name.exit.thread

uds_lookup_data_name.exit.thread:                 ; preds = %generic_lookup_addr_id.exit.thread6.i, %generic_lookup_addr_id.exit.i, %uds_lookup_data_name.exit
  %.0.i6 = phi ptr [ %18, %uds_lookup_data_name.exit ], [ %13, %generic_lookup_addr_id.exit.thread6.i ], [ %16, %generic_lookup_addr_id.exit.i ]
  call void (ptr, ptr, ...) @proto_item_append_text(ptr noundef %0, ptr noundef nonnull @.str.760, ptr noundef nonnull %.0.i6)
  br label %19

19:                                               ; preds = %uds_lookup_data_name.exit.thread, %uds_lookup_data_name.exit
  ret void
}